	.file	"asm-offsets.c"
# GNU C89 (Ubuntu 9.3.0-17ubuntu1~20.04) version 9.3.0 (x86_64-linux-gnu)
#	compiled by GNU C version 9.3.0, GMP version 6.2.0, MPFR version 4.0.2, MPC version 1.1.0, isl version isl-0.22.1-GMP

# GGC heuristics: --param ggc-min-expand=100 --param ggc-min-heapsize=131072
# options passed:  -nostdinc -I ./arch/x86/include
# -I ./arch/x86/include/generated -I ./include -I ./arch/x86/include/uapi
# -I ./arch/x86/include/generated/uapi -I ./include/uapi
# -I ./include/generated/uapi -imultiarch x86_64-linux-gnu -D __KERNEL__
# -D CONFIG_CC_STACKPROTECTOR -D CC_HAVE_ASM_GOTO -D CONFIG_X86_X32_ABI
# -D CONFIG_AS_CFI=1 -D CONFIG_AS_CFI_SIGNAL_FRAME=1
# -D CONFIG_AS_CFI_SECTIONS=1 -D CONFIG_AS_FXSAVEQ=1 -D CONFIG_AS_SSSE3=1
# -D CONFIG_AS_CRC32=1 -D CONFIG_AS_AVX=1 -D CONFIG_AS_AVX2=1
# -D CONFIG_AS_AVX512=1 -D CONFIG_AS_SHA1_NI=1 -D CONFIG_AS_SHA256_NI=1
# -D RETPOLINE -D CC_USING_FENTRY -D KBUILD_BASENAME="asm_offsets"
# -D KBUILD_MODNAME="asm_offsets"
# -isystem /usr/lib/gcc/x86_64-linux-gnu/9/include
# -include ./include/linux/kconfig.h
# -include ./include/linux/compiler_types.h
# -MD arch/x86/kernel/.asm-offsets.s.d arch/x86/kernel/asm-offsets.c
# -mno-sse -mno-mmx -mno-sse2 -mno-3dnow -mno-avx -m64 -mno-80387
# -mno-fp-ret-in-387 -mpreferred-stack-boundary=3 -mskip-rax-setup
# -mtune=generic -mno-red-zone -mcmodel=kernel
# -mindirect-branch=thunk-extern -mindirect-branch-register -mfentry
# -march=x86-64 -auxbase-strip arch/x86/kernel/asm-offsets.s -g -gdwarf-4
# -O2 -Wall -Wundef -Wstrict-prototypes -Wno-trigraphs
# -Werror=implicit-function-declaration -Wno-format-security
# -Wno-sign-compare -Wno-frame-address -Wformat-truncation=0
# -Wformat-overflow=0 -Wno-int-in-bool-context -Wframe-larger-than=1024
# -Wno-unused-but-set-variable -Wunused-const-variable=0
# -Wdeclaration-after-statement -Wno-pointer-sign -Werror=implicit-int
# -Werror=strict-prototypes -Werror=date-time
# -Werror=incompatible-pointer-types -Werror=designated-init
# -Wno-packed-not-aligned -std=gnu90 -p -fno-strict-aliasing -fno-common
# -fshort-wchar -fno-PIE -falign-jumps=1 -falign-loops=1 -funit-at-a-time
# -fno-asynchronous-unwind-tables -fno-delete-null-pointer-checks
# -fstack-protector-strong -fno-omit-frame-pointer
# -fno-optimize-sibling-calls -fno-var-tracking-assignments
# -fno-strict-overflow -fno-merge-all-constants -fmerge-constants
# -fstack-check=no -fconserve-stack -fmacro-prefix-map=./= -fverbose-asm
# --param allow-store-data-races=0 -fstack-protector-strong
# -fstack-clash-protection -fcf-protection
# options enabled:  -faggressive-loop-optimizations -falign-functions
# -falign-jumps -falign-labels -falign-loops -fassume-phsa -fauto-inc-dec
# -fbranch-count-reg -fcaller-saves -fcode-hoisting
# -fcombine-stack-adjustments -fcompare-elim -fcprop-registers
# -fcrossjumping -fcse-follow-jumps -fdefer-pop -fdevirtualize
# -fdevirtualize-speculatively -fdwarf2-cfi-asm -fearly-inlining
# -feliminate-unused-debug-types -fexpensive-optimizations
# -fforward-propagate -ffp-int-builtin-inexact -ffunction-cse -fgcse
# -fgcse-lm -fgnu-runtime -fgnu-unique -fguess-branch-probability
# -fhoist-adjacent-loads -fident -fif-conversion -fif-conversion2
# -findirect-inlining -finline -finline-atomics
# -finline-functions-called-once -finline-small-functions -fipa-bit-cp
# -fipa-cp -fipa-icf -fipa-icf-functions -fipa-icf-variables -fipa-profile
# -fipa-pure-const -fipa-reference -fipa-reference-addressable -fipa-sra
# -fipa-stack-alignment -fipa-vrp -fira-hoist-pressure
# -fira-share-save-slots -fira-share-spill-slots
# -fisolate-erroneous-paths-dereference -fivopts -fkeep-static-consts
# -fleading-underscore -flifetime-dse -flra-remat -flto-odr-type-merging
# -fmath-errno -fmerge-constants -fmerge-debug-strings
# -fmove-loop-invariants -foptimize-strlen -fpartial-inlining -fpeephole
# -fpeephole2 -fplt -fprefetch-loop-arrays -fprofile -free
# -freg-struct-return -freorder-blocks -freorder-blocks-and-partition
# -freorder-functions -frerun-cse-after-loop
# -fsched-critical-path-heuristic -fsched-dep-count-heuristic
# -fsched-group-heuristic -fsched-interblock -fsched-last-insn-heuristic
# -fsched-rank-heuristic -fsched-spec -fsched-spec-insn-heuristic
# -fsched-stalled-insns-dep -fschedule-fusion -fschedule-insns2
# -fsemantic-interposition -fshow-column -fshrink-wrap
# -fshrink-wrap-separate -fsigned-zeros -fsplit-ivs-in-unroller
# -fsplit-wide-types -fssa-backprop -fssa-phiopt -fstack-clash-protection
# -fstack-protector-strong -fstdarg-opt -fstore-merging
# -fstrict-volatile-bitfields -fsync-libcalls -fthread-jumps
# -ftoplevel-reorder -ftrapping-math -ftree-bit-ccp -ftree-builtin-call-dce
# -ftree-ccp -ftree-ch -ftree-coalesce-vars -ftree-copy-prop -ftree-cselim
# -ftree-dce -ftree-dominator-opts -ftree-dse -ftree-forwprop -ftree-fre
# -ftree-loop-if-convert -ftree-loop-im -ftree-loop-ivcanon
# -ftree-loop-optimize -ftree-parallelize-loops= -ftree-phiprop -ftree-pre
# -ftree-pta -ftree-reassoc -ftree-scev-cprop -ftree-sink -ftree-slsr
# -ftree-sra -ftree-switch-conversion -ftree-tail-merge -ftree-ter
# -ftree-vrp -funit-at-a-time -fvar-tracking -fverbose-asm -fwrapv
# -fwrapv-pointer -fzero-initialized-in-bss -m128bit-long-double -m64
# -malign-stringops -mavx256-split-unaligned-load
# -mavx256-split-unaligned-store -mfentry -mfxsr -mglibc -mieee-fp
# -mindirect-branch-register -mlong-double-80 -mno-fancy-math-387
# -mno-red-zone -mno-sse4 -mpush-args -mskip-rax-setup
# -mtls-direct-seg-refs -mvzeroupper

	.text
.Ltext0:
	.cfi_sections	.debug_frame
	.section	.text.startup,"ax",@progbits
	.p2align 4
	.globl	main
	.type	main, @function
main:
.LFB3030:
	.file 1 "arch/x86/kernel/asm-offsets_64.c"
	.loc 1 22 1 view -0
	.cfi_startproc
	endbr64
1:	call	__fentry__
	.loc 1 24 2 view .LVU1
# arch/x86/kernel/asm-offsets_64.c:22: {
	.loc 1 22 1 is_stmt 0 view .LVU2
	pushq	%rbp	#
	.cfi_def_cfa_offset 16
	.cfi_offset 6, -16
	movq	%rsp, %rbp	#,
	.cfi_def_cfa_register 6
# arch/x86/kernel/asm-offsets_64.c:24: 	OFFSET(PV_CPU_usergs_sysret64, pv_cpu_ops, usergs_sysret64);
	.loc 1 24 2 view .LVU3
#APP
# 24 "arch/x86/kernel/asm-offsets_64.c" 1
	
.ascii "->PV_CPU_usergs_sysret64 $232 offsetof(struct pv_cpu_ops, usergs_sysret64)"	#
# 0 "" 2
	.loc 1 25 2 is_stmt 1 view .LVU4
# 25 "arch/x86/kernel/asm-offsets_64.c" 1
	
.ascii "->PV_CPU_swapgs $248 offsetof(struct pv_cpu_ops, swapgs)"	#
# 0 "" 2
	.loc 1 29 2 view .LVU5
# 29 "arch/x86/kernel/asm-offsets_64.c" 1
	
.ascii "->"
# 0 "" 2
	.loc 1 33 2 view .LVU6
# 33 "arch/x86/kernel/asm-offsets_64.c" 1
	
.ascii "->KVM_STEAL_TIME_preempted $16 offsetof(struct kvm_steal_time, preempted)"	#
# 0 "" 2
	.loc 1 34 2 view .LVU7
# 34 "arch/x86/kernel/asm-offsets_64.c" 1
	
.ascii "->"
# 0 "" 2
	.loc 1 38 2 view .LVU8
# 38 "arch/x86/kernel/asm-offsets_64.c" 1
	
.ascii "->pt_regs_bx $40 offsetof(struct pt_regs, bx)"	#
# 0 "" 2
	.loc 1 39 2 view .LVU9
# 39 "arch/x86/kernel/asm-offsets_64.c" 1
	
.ascii "->pt_regs_cx $88 offsetof(struct pt_regs, cx)"	#
# 0 "" 2
	.loc 1 40 2 view .LVU10
# 40 "arch/x86/kernel/asm-offsets_64.c" 1
	
.ascii "->pt_regs_dx $96 offsetof(struct pt_regs, dx)"	#
# 0 "" 2
	.loc 1 41 2 view .LVU11
# 41 "arch/x86/kernel/asm-offsets_64.c" 1
	
.ascii "->pt_regs_sp $152 offsetof(struct pt_regs, sp)"	#
# 0 "" 2
	.loc 1 42 2 view .LVU12
# 42 "arch/x86/kernel/asm-offsets_64.c" 1
	
.ascii "->pt_regs_bp $32 offsetof(struct pt_regs, bp)"	#
# 0 "" 2
	.loc 1 43 2 view .LVU13
# 43 "arch/x86/kernel/asm-offsets_64.c" 1
	
.ascii "->pt_regs_si $104 offsetof(struct pt_regs, si)"	#
# 0 "" 2
	.loc 1 44 2 view .LVU14
# 44 "arch/x86/kernel/asm-offsets_64.c" 1
	
.ascii "->pt_regs_di $112 offsetof(struct pt_regs, di)"	#
# 0 "" 2
	.loc 1 45 2 view .LVU15
# 45 "arch/x86/kernel/asm-offsets_64.c" 1
	
.ascii "->pt_regs_r8 $72 offsetof(struct pt_regs, r8)"	#
# 0 "" 2
	.loc 1 46 2 view .LVU16
# 46 "arch/x86/kernel/asm-offsets_64.c" 1
	
.ascii "->pt_regs_r9 $64 offsetof(struct pt_regs, r9)"	#
# 0 "" 2
	.loc 1 47 2 view .LVU17
# 47 "arch/x86/kernel/asm-offsets_64.c" 1
	
.ascii "->pt_regs_r10 $56 offsetof(struct pt_regs, r10)"	#
# 0 "" 2
	.loc 1 48 2 view .LVU18
# 48 "arch/x86/kernel/asm-offsets_64.c" 1
	
.ascii "->pt_regs_r11 $48 offsetof(struct pt_regs, r11)"	#
# 0 "" 2
	.loc 1 49 2 view .LVU19
# 49 "arch/x86/kernel/asm-offsets_64.c" 1
	
.ascii "->pt_regs_r12 $24 offsetof(struct pt_regs, r12)"	#
# 0 "" 2
	.loc 1 50 2 view .LVU20
# 50 "arch/x86/kernel/asm-offsets_64.c" 1
	
.ascii "->pt_regs_r13 $16 offsetof(struct pt_regs, r13)"	#
# 0 "" 2
	.loc 1 51 2 view .LVU21
# 51 "arch/x86/kernel/asm-offsets_64.c" 1
	
.ascii "->pt_regs_r14 $8 offsetof(struct pt_regs, r14)"	#
# 0 "" 2
	.loc 1 52 2 view .LVU22
# 52 "arch/x86/kernel/asm-offsets_64.c" 1
	
.ascii "->pt_regs_r15 $0 offsetof(struct pt_regs, r15)"	#
# 0 "" 2
	.loc 1 53 2 view .LVU23
# 53 "arch/x86/kernel/asm-offsets_64.c" 1
	
.ascii "->pt_regs_flags $144 offsetof(struct pt_regs, flags)"	#
# 0 "" 2
	.loc 1 54 2 view .LVU24
# 54 "arch/x86/kernel/asm-offsets_64.c" 1
	
.ascii "->"
# 0 "" 2
	.loc 1 58 2 view .LVU25
# 58 "arch/x86/kernel/asm-offsets_64.c" 1
	
.ascii "->saved_context_cr0 $200 offsetof(struct saved_context, cr0)"	#
# 0 "" 2
	.loc 1 59 2 view .LVU26
# 59 "arch/x86/kernel/asm-offsets_64.c" 1
	
.ascii "->saved_context_cr2 $208 offsetof(struct saved_context, cr2)"	#
# 0 "" 2
	.loc 1 60 2 view .LVU27
# 60 "arch/x86/kernel/asm-offsets_64.c" 1
	
.ascii "->saved_context_cr3 $216 offsetof(struct saved_context, cr3)"	#
# 0 "" 2
	.loc 1 61 2 view .LVU28
# 61 "arch/x86/kernel/asm-offsets_64.c" 1
	
.ascii "->saved_context_cr4 $224 offsetof(struct saved_context, cr4)"	#
# 0 "" 2
	.loc 1 62 2 view .LVU29
# 62 "arch/x86/kernel/asm-offsets_64.c" 1
	
.ascii "->saved_context_cr8 $232 offsetof(struct saved_context, cr8)"	#
# 0 "" 2
	.loc 1 63 2 view .LVU30
# 63 "arch/x86/kernel/asm-offsets_64.c" 1
	
.ascii "->saved_context_gdt_desc $275 offsetof(struct saved_context, gdt_desc)"	#
# 0 "" 2
	.loc 1 64 2 view .LVU31
# 64 "arch/x86/kernel/asm-offsets_64.c" 1
	
.ascii "->"
# 0 "" 2
	.loc 1 67 2 view .LVU32
# 67 "arch/x86/kernel/asm-offsets_64.c" 1
	
.ascii "->TSS_ist $36 offsetof(struct tss_struct, x86_tss.ist)"	#
# 0 "" 2
	.loc 1 68 2 view .LVU33
# 68 "arch/x86/kernel/asm-offsets_64.c" 1
	
.ascii "->TSS_sp0 $4 offsetof(struct tss_struct, x86_tss.sp0)"	#
# 0 "" 2
	.loc 1 69 2 view .LVU34
# 69 "arch/x86/kernel/asm-offsets_64.c" 1
	
.ascii "->TSS_sp1 $12 offsetof(struct tss_struct, x86_tss.sp1)"	#
# 0 "" 2
	.loc 1 70 2 view .LVU35
# 70 "arch/x86/kernel/asm-offsets_64.c" 1
	
.ascii "->"
# 0 "" 2
	.loc 1 73 2 view .LVU36
# 73 "arch/x86/kernel/asm-offsets_64.c" 1
	
.ascii "->stack_canary_offset $40 offsetof(union irq_stack_union, stack_canary)"	#
# 0 "" 2
	.loc 1 74 2 view .LVU37
# 74 "arch/x86/kernel/asm-offsets_64.c" 1
	
.ascii "->"
# 0 "" 2
	.loc 1 77 2 view .LVU38
# 77 "arch/x86/kernel/asm-offsets_64.c" 1
	
.ascii "->__NR_syscall_max $547 sizeof(syscalls_64) - 1"	#
# 0 "" 2
	.loc 1 78 2 view .LVU39
# 78 "arch/x86/kernel/asm-offsets_64.c" 1
	
.ascii "->NR_syscalls $548 sizeof(syscalls_64)"	#
# 0 "" 2
	.loc 1 80 2 view .LVU40
# 80 "arch/x86/kernel/asm-offsets_64.c" 1
	
.ascii "->__NR_syscall_compat_max $384 sizeof(syscalls_ia32) - 1"	#
# 0 "" 2
	.loc 1 81 2 view .LVU41
# 81 "arch/x86/kernel/asm-offsets_64.c" 1
	
.ascii "->IA32_NR_syscalls $385 sizeof(syscalls_ia32)"	#
# 0 "" 2
	.loc 1 83 2 view .LVU42
# arch/x86/kernel/asm-offsets_64.c:84: }
	.loc 1 84 1 is_stmt 0 view .LVU43
#NO_APP
	xorl	%eax, %eax	#
	popq	%rbp	#
	.cfi_restore 6
	.cfi_def_cfa 7, 8
	ret	
	.cfi_endproc
.LFE3030:
	.size	main, .-main
	.text
	.p2align 4
	.globl	common
	.type	common, @function
common:
.LFB3031:
	.file 2 "arch/x86/kernel/asm-offsets.c"
	.loc 2 32 19 is_stmt 1 view -0
	.cfi_startproc
	endbr64
1:	call	__fentry__
	.loc 2 33 2 view .LVU45
# arch/x86/kernel/asm-offsets.c:32: void common(void) {
	.loc 2 32 19 is_stmt 0 view .LVU46
	pushq	%rbp	#
	.cfi_def_cfa_offset 16
	.cfi_offset 6, -16
	movq	%rsp, %rbp	#,
	.cfi_def_cfa_register 6
# arch/x86/kernel/asm-offsets.c:33: 	BLANK();
	.loc 2 33 2 view .LVU47
#APP
# 33 "arch/x86/kernel/asm-offsets.c" 1
	
.ascii "->"
# 0 "" 2
	.loc 2 34 2 is_stmt 1 view .LVU48
# 34 "arch/x86/kernel/asm-offsets.c" 1
	
.ascii "->TASK_threadsp $4760 offsetof(struct task_struct, thread.sp)"	#
# 0 "" 2
	.loc 2 36 2 view .LVU49
# 36 "arch/x86/kernel/asm-offsets.c" 1
	
.ascii "->TASK_stack_canary $2224 offsetof(struct task_struct, stack_canary)"	#
# 0 "" 2
	.loc 2 39 2 view .LVU50
# 39 "arch/x86/kernel/asm-offsets.c" 1
	
.ascii "->"
# 0 "" 2
	.loc 2 40 2 view .LVU51
# 40 "arch/x86/kernel/asm-offsets.c" 1
	
.ascii "->TASK_TI_flags $0 offsetof(struct task_struct, thread_info.flags)"	#
# 0 "" 2
	.loc 2 41 2 view .LVU52
# 41 "arch/x86/kernel/asm-offsets.c" 1
	
.ascii "->TASK_addr_limit $4888 offsetof(struct task_struct, thread.addr_limit)"	#
# 0 "" 2
	.loc 2 43 2 view .LVU53
# 43 "arch/x86/kernel/asm-offsets.c" 1
	
.ascii "->"
# 0 "" 2
	.loc 2 44 2 view .LVU54
# 44 "arch/x86/kernel/asm-offsets.c" 1
	
.ascii "->crypto_tfm_ctx_offset $64 offsetof(struct crypto_tfm, __crt_ctx)"	#
# 0 "" 2
	.loc 2 46 2 view .LVU55
# 46 "arch/x86/kernel/asm-offsets.c" 1
	
.ascii "->"
# 0 "" 2
	.loc 2 47 2 view .LVU56
# 47 "arch/x86/kernel/asm-offsets.c" 1
	
.ascii "->pbe_address $0 offsetof(struct pbe, address)"	#
# 0 "" 2
	.loc 2 48 2 view .LVU57
# 48 "arch/x86/kernel/asm-offsets.c" 1
	
.ascii "->pbe_orig_address $8 offsetof(struct pbe, orig_address)"	#
# 0 "" 2
	.loc 2 49 2 view .LVU58
# 49 "arch/x86/kernel/asm-offsets.c" 1
	
.ascii "->pbe_next $16 offsetof(struct pbe, next)"	#
# 0 "" 2
	.loc 2 52 2 view .LVU59
# 52 "arch/x86/kernel/asm-offsets.c" 1
	
.ascii "->"
# 0 "" 2
	.loc 2 53 2 view .LVU60
# 53 "arch/x86/kernel/asm-offsets.c" 1
	
.ascii "->IA32_SIGCONTEXT_ax $44 offsetof(struct sigcontext_32, ax)"	#
# 0 "" 2
	.loc 2 54 2 view .LVU61
# 54 "arch/x86/kernel/asm-offsets.c" 1
	
.ascii "->IA32_SIGCONTEXT_bx $32 offsetof(struct sigcontext_32, bx)"	#
# 0 "" 2
	.loc 2 55 2 view .LVU62
# 55 "arch/x86/kernel/asm-offsets.c" 1
	
.ascii "->IA32_SIGCONTEXT_cx $40 offsetof(struct sigcontext_32, cx)"	#
# 0 "" 2
	.loc 2 56 2 view .LVU63
# 56 "arch/x86/kernel/asm-offsets.c" 1
	
.ascii "->IA32_SIGCONTEXT_dx $36 offsetof(struct sigcontext_32, dx)"	#
# 0 "" 2
	.loc 2 57 2 view .LVU64
# 57 "arch/x86/kernel/asm-offsets.c" 1
	
.ascii "->IA32_SIGCONTEXT_si $20 offsetof(struct sigcontext_32, si)"	#
# 0 "" 2
	.loc 2 58 2 view .LVU65
# 58 "arch/x86/kernel/asm-offsets.c" 1
	
.ascii "->IA32_SIGCONTEXT_di $16 offsetof(struct sigcontext_32, di)"	#
# 0 "" 2
	.loc 2 59 2 view .LVU66
# 59 "arch/x86/kernel/asm-offsets.c" 1
	
.ascii "->IA32_SIGCONTEXT_bp $24 offsetof(struct sigcontext_32, bp)"	#
# 0 "" 2
	.loc 2 60 2 view .LVU67
# 60 "arch/x86/kernel/asm-offsets.c" 1
	
.ascii "->IA32_SIGCONTEXT_sp $28 offsetof(struct sigcontext_32, sp)"	#
# 0 "" 2
	.loc 2 61 2 view .LVU68
# 61 "arch/x86/kernel/asm-offsets.c" 1
	
.ascii "->IA32_SIGCONTEXT_ip $56 offsetof(struct sigcontext_32, ip)"	#
# 0 "" 2
	.loc 2 63 2 view .LVU69
# 63 "arch/x86/kernel/asm-offsets.c" 1
	
.ascii "->"
# 0 "" 2
	.loc 2 64 2 view .LVU70
# 64 "arch/x86/kernel/asm-offsets.c" 1
	
.ascii "->IA32_RT_SIGFRAME_sigcontext $164 offsetof(struct rt_sigframe_ia32, uc.uc_mcontext)"	#
# 0 "" 2
	.loc 2 68 2 view .LVU71
# 68 "arch/x86/kernel/asm-offsets.c" 1
	
.ascii "->"
# 0 "" 2
	.loc 2 69 2 view .LVU72
# 69 "arch/x86/kernel/asm-offsets.c" 1
	
.ascii "->PARAVIRT_PATCH_pv_cpu_ops $24 offsetof(struct paravirt_patch_template, pv_cpu_ops)"	#
# 0 "" 2
	.loc 2 70 2 view .LVU73
# 70 "arch/x86/kernel/asm-offsets.c" 1
	
.ascii "->PARAVIRT_PATCH_pv_irq_ops $296 offsetof(struct paravirt_patch_template, pv_irq_ops)"	#
# 0 "" 2
	.loc 2 71 2 view .LVU74
# 71 "arch/x86/kernel/asm-offsets.c" 1
	
.ascii "->PV_IRQ_irq_disable $16 offsetof(struct pv_irq_ops, irq_disable)"	#
# 0 "" 2
	.loc 2 72 2 view .LVU75
# 72 "arch/x86/kernel/asm-offsets.c" 1
	
.ascii "->PV_IRQ_irq_enable $24 offsetof(struct pv_irq_ops, irq_enable)"	#
# 0 "" 2
	.loc 2 73 2 view .LVU76
# 73 "arch/x86/kernel/asm-offsets.c" 1
	
.ascii "->PV_CPU_iret $240 offsetof(struct pv_cpu_ops, iret)"	#
# 0 "" 2
	.loc 2 74 2 view .LVU77
# 74 "arch/x86/kernel/asm-offsets.c" 1
	
.ascii "->PV_CPU_read_cr0 $16 offsetof(struct pv_cpu_ops, read_cr0)"	#
# 0 "" 2
	.loc 2 75 2 view .LVU78
# 75 "arch/x86/kernel/asm-offsets.c" 1
	
.ascii "->PV_MMU_read_cr2 $0 offsetof(struct pv_mmu_ops, read_cr2)"	#
# 0 "" 2
	.loc 2 79 2 view .LVU79
# 79 "arch/x86/kernel/asm-offsets.c" 1
	
.ascii "->"
# 0 "" 2
	.loc 2 80 2 view .LVU80
# 80 "arch/x86/kernel/asm-offsets.c" 1
	
.ascii "->XEN_vcpu_info_mask $1 offsetof(struct vcpu_info, evtchn_upcall_mask)"	#
# 0 "" 2
	.loc 2 81 2 view .LVU81
# 81 "arch/x86/kernel/asm-offsets.c" 1
	
.ascii "->XEN_vcpu_info_pending $0 offsetof(struct vcpu_info, evtchn_upcall_pending)"	#
# 0 "" 2
	.loc 2 84 2 view .LVU82
# 84 "arch/x86/kernel/asm-offsets.c" 1
	
.ascii "->"
# 0 "" 2
	.loc 2 85 2 view .LVU83
# 85 "arch/x86/kernel/asm-offsets.c" 1
	
.ascii "->BP_scratch $484 offsetof(struct boot_params, scratch)"	#
# 0 "" 2
	.loc 2 86 2 view .LVU84
# 86 "arch/x86/kernel/asm-offsets.c" 1
	
.ascii "->BP_secure_boot $492 offsetof(struct boot_params, secure_boot)"	#
# 0 "" 2
	.loc 2 87 2 view .LVU85
# 87 "arch/x86/kernel/asm-offsets.c" 1
	
.ascii "->BP_loadflags $529 offsetof(struct boot_params, hdr.loadflags)"	#
# 0 "" 2
	.loc 2 88 2 view .LVU86
# 88 "arch/x86/kernel/asm-offsets.c" 1
	
.ascii "->BP_hardware_subarch $572 offsetof(struct boot_params, hdr.hardware_subarch)"	#
# 0 "" 2
	.loc 2 89 2 view .LVU87
# 89 "arch/x86/kernel/asm-offsets.c" 1
	
.ascii "->BP_version $518 offsetof(struct boot_params, hdr.version)"	#
# 0 "" 2
	.loc 2 90 2 view .LVU88
# 90 "arch/x86/kernel/asm-offsets.c" 1
	
.ascii "->BP_kernel_alignment $560 offsetof(struct boot_params, hdr.kernel_alignment)"	#
# 0 "" 2
	.loc 2 91 2 view .LVU89
# 91 "arch/x86/kernel/asm-offsets.c" 1
	
.ascii "->BP_init_size $608 offsetof(struct boot_params, hdr.init_size)"	#
# 0 "" 2
	.loc 2 92 2 view .LVU90
# 92 "arch/x86/kernel/asm-offsets.c" 1
	
.ascii "->BP_pref_address $600 offsetof(struct boot_params, hdr.pref_address)"	#
# 0 "" 2
	.loc 2 93 2 view .LVU91
# 93 "arch/x86/kernel/asm-offsets.c" 1
	
.ascii "->BP_code32_start $532 offsetof(struct boot_params, hdr.code32_start)"	#
# 0 "" 2
	.loc 2 95 2 view .LVU92
# 95 "arch/x86/kernel/asm-offsets.c" 1
	
.ascii "->"
# 0 "" 2
	.loc 2 96 2 view .LVU93
# 96 "arch/x86/kernel/asm-offsets.c" 1
	
.ascii "->PTREGS_SIZE $168 sizeof(struct pt_regs)"	#
# 0 "" 2
	.loc 2 99 2 view .LVU94
# 99 "arch/x86/kernel/asm-offsets.c" 1
	
.ascii "->TLB_STATE_user_pcid_flush_mask $26 offsetof(struct tlb_state, user_pcid_flush_mask)"	#
# 0 "" 2
	.loc 2 102 2 view .LVU95
# 102 "arch/x86/kernel/asm-offsets.c" 1
	
.ascii "->CPU_ENTRY_AREA_tss $8192 offsetof(struct cpu_entry_area, tss)"	#
# 0 "" 2
	.loc 2 103 2 view .LVU96
# 103 "arch/x86/kernel/asm-offsets.c" 1
	
.ascii "->CPU_ENTRY_AREA_entry_trampoline $20480 offsetof(struct cpu_entry_area, entry_trampoline)"	#
# 0 "" 2
	.loc 2 104 2 view .LVU97
# 104 "arch/x86/kernel/asm-offsets.c" 1
	
.ascii "->CPU_ENTRY_AREA_entry_stack $4096 offsetof(struct cpu_entry_area, entry_stack_page)"	#
# 0 "" 2
	.loc 2 105 2 view .LVU98
# 105 "arch/x86/kernel/asm-offsets.c" 1
	
.ascii "->SIZEOF_entry_stack $512 sizeof(struct entry_stack)"	#
# 0 "" 2
# arch/x86/kernel/asm-offsets.c:106: }
	.loc 2 106 1 is_stmt 0 view .LVU99
#NO_APP
	popq	%rbp	#
	.cfi_restore 6
	.cfi_def_cfa 7, 8
	ret	
	.cfi_endproc
.LFE3031:
	.size	common, .-common
.Letext0:
	.file 3 "./include/uapi/asm-generic/int-ll64.h"
	.file 4 "./include/asm-generic/int-ll64.h"
	.file 5 "./include/uapi/asm-generic/posix_types.h"
	.file 6 "./include/uapi/linux/types.h"
	.file 7 "./include/linux/types.h"
	.file 8 "./arch/x86/include/asm/alternative.h"
	.file 9 "./arch/x86/include/asm/nops.h"
	.file 10 "./include/asm-generic/atomic-long.h"
	.file 11 "./include/linux/init.h"
	.file 12 "./include/linux/printk.h"
	.file 13 "./include/linux/jump_label.h"
	.file 14 "./arch/x86/include/asm/jump_label.h"
	.file 15 "./include/linux/fs.h"
	.file 16 "./include/linux/notifier.h"
	.file 17 "./include/linux/kernel.h"
	.file 18 "./include/asm-generic/percpu.h"
	.file 19 "./arch/x86/include/asm/percpu.h"
	.file 20 "./include/linux/restart_block.h"
	.file 21 "./include/uapi/linux/time.h"
	.file 22 "./arch/x86/include/asm/compat.h"
	.file 23 "./include/linux/sched.h"
	.file 24 "./arch/x86/include/asm/current.h"
	.file 25 "./include/uapi/linux/screen_info.h"
	.file 26 "./include/linux/screen_info.h"
	.file 27 "./include/uapi/linux/apm_bios.h"
	.file 28 "./include/asm-generic/ioctl.h"
	.file 29 "./include/linux/apm_bios.h"
	.file 30 "./include/uapi/linux/edd.h"
	.file 31 "./arch/x86/include/uapi/asm/ist.h"
	.file 32 "./arch/x86/include/asm/ist.h"
	.file 33 "./include/uapi/video/edid.h"
	.file 34 "./include/video/edid.h"
	.file 35 "./arch/x86/include/asm/mem_encrypt.h"
	.file 36 "./arch/x86/include/asm/page_types.h"
	.file 37 "./arch/x86/include/asm/page_64.h"
	.file 38 "./include/linux/range.h"
	.file 39 "./arch/x86/include/asm/page.h"
	.file 40 "./arch/x86/include/asm/segment.h"
	.file 41 "./arch/x86/include/asm/ptrace.h"
	.file 42 "./arch/x86/include/asm/desc_defs.h"
	.file 43 "./arch/x86/include/asm/pgtable_64_types.h"
	.file 44 "./arch/x86/include/asm/pgtable_types.h"
	.file 45 "./include/linux/mm_types.h"
	.file 46 "./arch/x86/include/asm/nospec-branch.h"
	.file 47 "./arch/x86/include/asm/paravirt_types.h"
	.file 48 "./arch/x86/include/asm/processor.h"
	.file 49 "./include/linux/cpumask.h"
	.file 50 "./arch/x86/include/asm/tlbflush.h"
	.file 51 "./include/asm-generic/qspinlock_types.h"
	.file 52 "./include/asm-generic/qrwlock_types.h"
	.file 53 "./arch/x86/include/asm/math_emu.h"
	.file 54 "./arch/x86/include/asm/string_64.h"
	.file 55 "./arch/x86/include/asm/cpumask.h"
	.file 56 "./include/linux/tracepoint-defs.h"
	.file 57 "./arch/x86/include/asm/msr.h"
	.file 58 "./arch/x86/include/asm/paravirt.h"
	.file 59 "./arch/x86/include/asm/special_insns.h"
	.file 60 "./arch/x86/include/asm/fpu/types.h"
	.file 61 "./include/linux/seq_file.h"
	.file 62 "./arch/x86/include/asm/cpufeature.h"
	.file 63 "./arch/x86/include/asm/thread_info.h"
	.file 64 "./arch/x86/include/asm/preempt.h"
	.file 65 "./include/linux/lockdep.h"
	.file 66 "./include/linux/spinlock_types.h"
	.file 67 "./include/linux/rwlock_types.h"
	.file 68 "./arch/x86/include/asm/qspinlock.h"
	.file 69 "./include/linux/wait.h"
	.file 70 "./include/linux/seqlock.h"
	.file 71 "./include/linux/nodemask.h"
	.file 72 "./include/linux/mmzone.h"
	.file 73 "./include/linux/osq_lock.h"
	.file 74 "./include/linux/debug_locks.h"
	.file 75 "./include/linux/mutex.h"
	.file 76 "./include/linux/rwsem.h"
	.file 77 "./include/linux/rcupdate.h"
	.file 78 "./include/linux/time64.h"
	.file 79 "./include/linux/time.h"
	.file 80 "./arch/x86/include/asm/tsc.h"
	.file 81 "./include/linux/timex.h"
	.file 82 "./include/linux/jiffies.h"
	.file 83 "./include/linux/ktime.h"
	.file 84 "./include/linux/timekeeping.h"
	.file 85 "./include/linux/timer.h"
	.file 86 "./include/linux/workqueue.h"
	.file 87 "./include/linux/completion.h"
	.file 88 "./include/linux/memory_hotplug.h"
	.file 89 "./arch/x86/include/asm/mpspec_def.h"
	.file 90 "./arch/x86/include/asm/x86_init.h"
	.file 91 "./arch/x86/include/asm/mpspec.h"
	.file 92 "./arch/x86/include/asm/topology.h"
	.file 93 "./arch/x86/include/asm/numa.h"
	.file 94 "./arch/x86/include/asm/mmu.h"
	.file 95 "./arch/x86/include/asm/io.h"
	.file 96 "./include/xen/xen.h"
	.file 97 "./arch/x86/include/asm/xen/interface.h"
	.file 98 "./arch/x86/include/asm/xen/interface_64.h"
	.file 99 "./arch/x86/include/asm/pvclock-abi.h"
	.file 100 "./include/xen/interface/xen.h"
	.file 101 "./arch/x86/include/asm/xen/hypervisor.h"
	.file 102 "./include/linux/fwnode.h"
	.file 103 "./include/linux/device.h"
	.file 104 "./include/linux/llist.h"
	.file 105 "./include/linux/rbtree.h"
	.file 106 "./include/linux/vmalloc.h"
	.file 107 "./arch/x86/include/asm/realmode.h"
	.file 108 "./arch/x86/include/asm/acpi.h"
	.file 109 "./arch/x86/include/asm/fixmap.h"
	.file 110 "./arch/x86/include/asm/apic.h"
	.file 111 "./arch/x86/include/asm/io_apic.h"
	.file 112 "./arch/x86/include/asm/smp.h"
	.file 113 "./include/linux/smp.h"
	.file 114 "./include/linux/percpu.h"
	.file 115 "./include/linux/topology.h"
	.file 116 "./include/linux/gfp.h"
	.file 117 "./include/linux/slab.h"
	.file 118 "./include/linux/memcontrol.h"
	.file 119 "./include/linux/pid.h"
	.file 120 "./include/linux/highuid.h"
	.file 121 "./include/linux/user_namespace.h"
	.file 122 "./include/linux/uidgid.h"
	.file 123 "./include/linux/refcount.h"
	.file 124 "./include/linux/sem.h"
	.file 125 "./include/linux/shm.h"
	.file 126 "./include/linux/plist.h"
	.file 127 "./include/linux/timerqueue.h"
	.file 128 "./include/linux/hrtimer.h"
	.file 129 "./include/linux/seccomp.h"
	.file 130 "./arch/x86/include/asm/signal.h"
	.file 131 "./include/uapi/asm-generic/siginfo.h"
	.file 132 "./include/linux/sched/user.h"
	.file 133 "./include/linux/signal_types.h"
	.file 134 "./arch/x86/include/asm/tlbbatch.h"
	.file 135 "./include/linux/mm_types_task.h"
	.file 136 "./include/linux/task_io_accounting.h"
	.file 137 "./include/linux/cred.h"
	.file 138 "./include/linux/nsproxy.h"
	.file 139 "./include/linux/bio.h"
	.file 140 "./include/linux/swap.h"
	.file 141 "./include/linux/backing-dev-defs.h"
	.file 142 "./include/linux/iocontext.h"
	.file 143 "./include/linux/cgroup-defs.h"
	.file 144 "./include/linux/compat.h"
	.file 145 "./include/linux/uprobes.h"
	.file 146 "./arch/x86/include/asm/extable.h"
	.file 147 "./include/linux/ftrace_irq.h"
	.file 148 "./include/linux/irqhandler.h"
	.file 149 "./include/linux/irqdesc.h"
	.file 150 "./include/linux/irq.h"
	.file 151 "./include/linux/irqreturn.h"
	.file 152 "./include/linux/irqnr.h"
	.file 153 "./arch/x86/include/asm/irq.h"
	.file 154 "./arch/x86/include/asm/irq_regs.h"
	.file 155 "./include/linux/interrupt.h"
	.file 156 "./include/linux/radix-tree.h"
	.file 157 "./include/linux/idr.h"
	.file 158 "./include/linux/kernfs.h"
	.file 159 "./include/linux/mm.h"
	.file 160 "./include/linux/kobject_ns.h"
	.file 161 "./include/linux/stat.h"
	.file 162 "./include/linux/sysfs.h"
	.file 163 "./include/linux/kobject.h"
	.file 164 "./include/linux/kref.h"
	.file 165 "./include/linux/profile.h"
	.file 166 "./include/asm-generic/sections.h"
	.file 167 "./arch/x86/include/asm/asm.h"
	.file 168 "./arch/x86/include/asm/sections.h"
	.file 169 "./arch/x86/include/asm/hw_irq.h"
	.file 170 "./arch/x86/include/asm/hardirq.h"
	.file 171 "./include/linux/list_bl.h"
	.file 172 "./include/linux/lockref.h"
	.file 173 "./include/linux/dcache.h"
	.file 174 "./include/linux/path.h"
	.file 175 "./include/linux/shrinker.h"
	.file 176 "./include/linux/list_lru.h"
	.file 177 "./arch/x86/include/asm/uprobes.h"
	.file 178 "./include/linux/memremap.h"
	.file 179 "./include/linux/capability.h"
	.file 180 "./include/uapi/linux/fiemap.h"
	.file 181 "./include/linux/migrate_mode.h"
	.file 182 "./include/linux/rcuwait.h"
	.file 183 "./include/linux/rcu_sync.h"
	.file 184 "./include/linux/percpu-rwsem.h"
	.file 185 "./include/linux/delayed_call.h"
	.file 186 "./include/uapi/linux/uuid.h"
	.file 187 "./include/linux/uuid.h"
	.file 188 "./include/linux/errseq.h"
	.file 189 "./include/uapi/linux/fs.h"
	.file 190 "./include/linux/percpu_counter.h"
	.file 191 "./include/linux/quota.h"
	.file 192 "./include/linux/projid.h"
	.file 193 "./include/linux/writeback.h"
	.file 194 "./include/linux/uio.h"
	.file 195 "./include/linux/nfs_fs_i.h"
	.file 196 "./include/linux/blk_types.h"
	.file 197 "./include/linux/sysctl.h"
	.file 198 "./include/linux/assoc_array.h"
	.file 199 "./include/linux/key.h"
	.file 200 "./include/linux/ratelimit.h"
	.file 201 "./include/linux/ns_common.h"
	.file 202 "./include/linux/cgroup.h"
	.file 203 "./include/linux/kernel_stat.h"
	.file 204 "./include/linux/percpu-refcount.h"
	.file 205 "./include/linux/u64_stats_sync.h"
	.file 206 "./include/linux/bpf-cgroup.h"
	.file 207 "./include/linux/cgroup_subsys.h"
	.file 208 "./include/linux/page_counter.h"
	.file 209 "./include/linux/vmpressure.h"
	.file 210 "./include/linux/page_ext.h"
	.file 211 "./include/linux/page_ref.h"
	.file 212 "./include/linux/ioport.h"
	.file 213 "./arch/x86/include/asm/pgtable.h"
	.file 214 "./arch/x86/include/asm/pgtable_64.h"
	.file 215 "./include/linux/huge_mm.h"
	.file 216 "./include/linux/vmstat.h"
	.file 217 "./include/linux/flex_proportions.h"
	.file 218 "./include/linux/bvec.h"
	.file 219 "./include/linux/mempool.h"
	.file 220 "./include/linux/klist.h"
	.file 221 "./include/linux/pm.h"
	.file 222 "./include/linux/pm_wakeup.h"
	.file 223 "./arch/x86/include/asm/device.h"
	.file 224 "./include/linux/node.h"
	.file 225 "./include/linux/freezer.h"
	.file 226 "./include/linux/suspend.h"
	.file 227 "./include/uapi/linux/uio.h"
	.file 228 "./arch/x86/include/asm/intel_ds.h"
	.file 229 "./arch/x86/include/asm/cpu_entry_area.h"
	.file 230 "./arch/x86/include/asm/desc.h"
	.file 231 "./arch/x86/include/asm/suspend_64.h"
	.file 232 "./include/linux/edd.h"
	.section	.note.GNU-stack,"",@progbits
	.section	.note.gnu.property,"a"
	.align 8
	.long	 1f - 0f
	.long	 4f - 1f
	.long	 5
0:
	.string	 "GNU"
1:
	.align 8
	.long	 0xc0000002
	.long	 3f - 2f
2:
	.long	 0x3
3:
	.align 8
4:
